; Function Attrs: nounwind sspstrong uwtable
define internal i64 @builtin_inline_class_28(ptr readnone captures(none) %0, i64 noundef %1) #0 {
  %3 = icmp eq i64 %1, 0
  %4 = and i64 %1, 7
  %5 = icmp ne i64 %4, 0
  %6 = or i1 %3, %5
  br i1 %6, label %RB_DYNAMIC_SYM_P.exit.thread.i, label %RB_DYNAMIC_SYM_P.exit.i

RB_DYNAMIC_SYM_P.exit.i:                          ; preds = %2
  %7 = inttoptr i64 %1 to ptr
  %8 = load i64, ptr %7, align 8, !tbaa !26
  %9 = and i64 %8, 31
  %10 = icmp eq i64 %9, 20
  br i1 %10, label %11, label %RB_DYNAMIC_SYM_P.exit.thread.i

11:                                               ; preds = %RB_DYNAMIC_SYM_P.exit.i
  %12 = getelementptr inbounds nuw i8, ptr %7, i64 24
  %13 = load i64, ptr %12, align 8, !tbaa !29
  br label %rb_sym2str.exit

RB_DYNAMIC_SYM_P.exit.thread.i:                   ; preds = %RB_DYNAMIC_SYM_P.exit.i, %2
  %14 = lshr i64 %1, 8
  %15 = tail call fastcc i64 @lookup_id_str(i64 noundef %14)
  br label %rb_sym2str.exit

rb_sym2str.exit:                                  ; preds = %11, %RB_DYNAMIC_SYM_P.exit.thread.i
  %.0.i = phi i64 [ %13, %11 ], [ %15, %RB_DYNAMIC_SYM_P.exit.thread.i ]
  ret i64 %.0.i
}